; ModuleID = '2/1190.c'
source_filename = "2/1190.c"
target datalayout = "e-m:e-p270:32:32-p271:32:32-p272:64:64-i64:64-f80:128-n8:16:32:64-S128"
target triple = "x86_64-pc-linux-gnu"

%struct.Book = type { i32, [30 x i8] }

@.str = private unnamed_addr constant [3 x i8] c"%d\00", align 1
@.str.1 = private unnamed_addr constant [6 x i8] c"%d %s\00", align 1
@.str.2 = private unnamed_addr constant [7 x i8] c"%c\0A%d\0A\00", align 1
@.str.3 = private unnamed_addr constant [4 x i8] c"%d\0A\00", align 1

; Function Attrs: noinline nounwind uwtable
define dso_local void @main() #0 {
  %1 = alloca i32, align 4
  %2 = alloca i32, align 4
  %3 = alloca [30 x i32], align 16
  %4 = alloca i32, align 4
  %5 = alloca i32, align 4
  %6 = alloca i32, align 4
  %7 = alloca [999 x %struct.Book], align 16
  store i32 0, i32* %1, align 4
  %8 = bitcast [30 x i32]* %3 to i8*
  call void @llvm.memset.p0i8.i64(i8* align 16 %8, i8 0, i64 120, i1 false)
  %9 = call i32 (i8*, ...) @__isoc99_scanf(i8* getelementptr inbounds ([3 x i8], [3 x i8]* @.str, i64 0, i64 0), i32* %4)
  store i32 0, i32* %5, align 4
  br label %10

10:                                               ; preds = %55, %0
  %11 = load i32, i32* %5, align 4
  %12 = load i32, i32* %4, align 4
  %13 = icmp slt i32 %11, %12
  br i1 %13, label %14, label %58

14:                                               ; preds = %10
  %15 = load i32, i32* %5, align 4
  %16 = sext i32 %15 to i64
  %17 = getelementptr inbounds [999 x %struct.Book], [999 x %struct.Book]* %7, i64 0, i64 %16
  %18 = getelementptr inbounds %struct.Book, %struct.Book* %17, i32 0, i32 0
  %19 = load i32, i32* %5, align 4
  %20 = sext i32 %19 to i64
  %21 = getelementptr inbounds [999 x %struct.Book], [999 x %struct.Book]* %7, i64 0, i64 %20
  %22 = getelementptr inbounds %struct.Book, %struct.Book* %21, i32 0, i32 1
  %23 = getelementptr inbounds [30 x i8], [30 x i8]* %22, i64 0, i64 0
  %24 = call i32 (i8*, ...) @__isoc99_scanf(i8* getelementptr inbounds ([6 x i8], [6 x i8]* @.str.1, i64 0, i64 0), i32* %18, i8* %23)
  %25 = load i32, i32* %5, align 4
  %26 = sext i32 %25 to i64
  %27 = getelementptr inbounds [999 x %struct.Book], [999 x %struct.Book]* %7, i64 0, i64 %26
  %28 = getelementptr inbounds %struct.Book, %struct.Book* %27, i32 0, i32 1
  %29 = getelementptr inbounds [30 x i8], [30 x i8]* %28, i64 0, i64 0
  %30 = call i64 @strlen(i8* %29) #4
  %31 = trunc i64 %30 to i32
  store i32 %31, i32* %2, align 4
  store i32 0, i32* %6, align 4
  br label %32

32:                                               ; preds = %51, %14
  %33 = load i32, i32* %6, align 4
  %34 = load i32, i32* %2, align 4
  %35 = icmp slt i32 %33, %34
  br i1 %35, label %36, label %54

36:                                               ; preds = %32
  %37 = load i32, i32* %5, align 4
  %38 = sext i32 %37 to i64
  %39 = getelementptr inbounds [999 x %struct.Book], [999 x %struct.Book]* %7, i64 0, i64 %38
  %40 = getelementptr inbounds %struct.Book, %struct.Book* %39, i32 0, i32 1
  %41 = load i32, i32* %6, align 4
  %42 = sext i32 %41 to i64
  %43 = getelementptr inbounds [30 x i8], [30 x i8]* %40, i64 0, i64 %42
  %44 = load i8, i8* %43, align 1
  %45 = sext i8 %44 to i32
  %46 = sub nsw i32 %45, 65
  %47 = sext i32 %46 to i64
  %48 = getelementptr inbounds [30 x i32], [30 x i32]* %3, i64 0, i64 %47
  %49 = load i32, i32* %48, align 4
  %50 = add nsw i32 %49, 1
  store i32 %50, i32* %48, align 4
  br label %51

51:                                               ; preds = %36
  %52 = load i32, i32* %6, align 4
  %53 = add nsw i32 %52, 1
  store i32 %53, i32* %6, align 4
  br label %32

54:                                               ; preds = %32
  br label %55

55:                                               ; preds = %54
  %56 = load i32, i32* %5, align 4
  %57 = add nsw i32 %56, 1
  store i32 %57, i32* %5, align 4
  br label %10

58:                                               ; preds = %10
  store i32 0, i32* %5, align 4
  br label %59

59:                                               ; preds = %75, %58
  %60 = load i32, i32* %5, align 4
  %61 = icmp slt i32 %60, 26
  br i1 %61, label %62, label %78

62:                                               ; preds = %59
  %63 = load i32, i32* %5, align 4
  %64 = sext i32 %63 to i64
  %65 = getelementptr inbounds [30 x i32], [30 x i32]* %3, i64 0, i64 %64
  %66 = load i32, i32* %65, align 4
  %67 = load i32, i32* %1, align 4
  %68 = sext i32 %67 to i64
  %69 = getelementptr inbounds [30 x i32], [30 x i32]* %3, i64 0, i64 %68
  %70 = load i32, i32* %69, align 4
  %71 = icmp sgt i32 %66, %70
  br i1 %71, label %72, label %74

72:                                               ; preds = %62
  %73 = load i32, i32* %5, align 4
  store i32 %73, i32* %1, align 4
  br label %74

74:                                               ; preds = %72, %62
  br label %75

75:                                               ; preds = %74
  %76 = load i32, i32* %5, align 4
  %77 = add nsw i32 %76, 1
  store i32 %77, i32* %5, align 4
  br label %59

78:                                               ; preds = %59
  %79 = load i32, i32* %1, align 4
  %80 = add nsw i32 %79, 65
  %81 = load i32, i32* %1, align 4
  %82 = sext i32 %81 to i64
  %83 = getelementptr inbounds [30 x i32], [30 x i32]* %3, i64 0, i64 %82
  %84 = load i32, i32* %83, align 4
  %85 = call i32 (i8*, ...) @printf(i8* getelementptr inbounds ([7 x i8], [7 x i8]* @.str.2, i64 0, i64 0), i32 %80, i32 %84)
  store i32 0, i32* %5, align 4
  br label %86

86:                                               ; preds = %127, %78
  %87 = load i32, i32* %5, align 4
  %88 = load i32, i32* %4, align 4
  %89 = icmp slt i32 %87, %88
  br i1 %89, label %90, label %130

90:                                               ; preds = %86
  %91 = load i32, i32* %5, align 4
  %92 = sext i32 %91 to i64
  %93 = getelementptr inbounds [999 x %struct.Book], [999 x %struct.Book]* %7, i64 0, i64 %92
  %94 = getelementptr inbounds %struct.Book, %struct.Book* %93, i32 0, i32 1
  %95 = getelementptr inbounds [30 x i8], [30 x i8]* %94, i64 0, i64 0
  %96 = call i64 @strlen(i8* %95) #4
  %97 = trunc i64 %96 to i32
  store i32 %97, i32* %2, align 4
  store i32 0, i32* %6, align 4
  br label %98

98:                                               ; preds = %123, %90
  %99 = load i32, i32* %6, align 4
  %100 = load i32, i32* %2, align 4
  %101 = icmp slt i32 %99, %100
  br i1 %101, label %102, label %126

102:                                              ; preds = %98
  %103 = load i32, i32* %5, align 4
  %104 = sext i32 %103 to i64
  %105 = getelementptr inbounds [999 x %struct.Book], [999 x %struct.Book]* %7, i64 0, i64 %104
  %106 = getelementptr inbounds %struct.Book, %struct.Book* %105, i32 0, i32 1
  %107 = load i32, i32* %6, align 4
  %108 = sext i32 %107 to i64
  %109 = getelementptr inbounds [30 x i8], [30 x i8]* %106, i64 0, i64 %108
  %110 = load i8, i8* %109, align 1
  %111 = sext i8 %110 to i32
  %112 = load i32, i32* %1, align 4
  %113 = add nsw i32 %112, 65
  %114 = icmp eq i32 %111, %113
  br i1 %114, label %115, label %122

115:                                              ; preds = %102
  %116 = load i32, i32* %5, align 4
  %117 = sext i32 %116 to i64
  %118 = getelementptr inbounds [999 x %struct.Book], [999 x %struct.Book]* %7, i64 0, i64 %117
  %119 = getelementptr inbounds %struct.Book, %struct.Book* %118, i32 0, i32 0
  %120 = load i32, i32* %119, align 4
  %121 = call i32 (i8*, ...) @printf(i8* getelementptr inbounds ([4 x i8], [4 x i8]* @.str.3, i64 0, i64 0), i32 %120)
  br label %126

122:                                              ; preds = %102
  br label %123

123:                                              ; preds = %122
  %124 = load i32, i32* %6, align 4
  %125 = add nsw i32 %124, 1
  store i32 %125, i32* %6, align 4
  br label %98

126:                                              ; preds = %115, %98
  br label %127

127:                                              ; preds = %126
  %128 = load i32, i32* %5, align 4
  %129 = add nsw i32 %128, 1
  store i32 %129, i32* %5, align 4
  br label %86

130:                                              ; preds = %86
  ret void
}

; Function Attrs: argmemonly nounwind willreturn
declare void @llvm.memset.p0i8.i64(i8* nocapture writeonly, i8, i64, i1 immarg) #1

declare dso_local i32 @__isoc99_scanf(i8*, ...) #2

; Function Attrs: nounwind readonly
declare dso_local i64 @strlen(i8*) #3

declare dso_local i32 @printf(i8*, ...) #2


!llvm.module.flags = !{!0}
!llvm.ident = !{!1}

!0 = !{i32 1, !"wchar_size", i32 4}
!1 = !{!"clang version 10.0.0-4ubuntu1 "}
